; Function Attrs: mustprogress nofree norecurse nosync nounwind willreturn memory(argmem: read) uwtable
define noundef double @_ZNK10open_spiel14dots_and_boxes16DotsAndBoxesGame10MaxUtilityEv(ptr nocapture noundef nonnull readonly align 8 dereferenceable(293) %0) unnamed_addr #7 align 2 {
  %2 = getelementptr inbounds nuw i8, ptr %0, i64 292
  %3 = load i8, ptr %2, align 4
  %4 = trunc i8 %3 to i1
  %5 = getelementptr inbounds nuw i8, ptr %0, i64 280
  %6 = load i32, ptr %5, align 8
  %7 = getelementptr inbounds nuw i8, ptr %0, i64 284
  %8 = load i32, ptr %7, align 4
  %9 = mul nsw i32 %8, %6
  %10 = sitofp i32 %9 to double
  %.0 = select i1 %4, double %10, double 1.000000e+00
  ret double %.0
}